; ModuleID = '29/430.c'
source_filename = "29/430.c"
target datalayout = "e-m:e-p270:32:32-p271:32:32-p272:64:64-i64:64-f80:128-n8:16:32:64-S128"
target triple = "x86_64-pc-linux-gnu"

@.str = private unnamed_addr constant [3 x i8] c"%d\00", align 1
@.str.1 = private unnamed_addr constant [6 x i8] c"%.3f\0A\00", align 1

; Function Attrs: noinline nounwind uwtable
define dso_local i32 @main() #0 {
  %1 = alloca i32, align 4
  %2 = alloca i32, align 4
  %3 = alloca i32, align 4
  %4 = alloca i32, align 4
  %5 = alloca i32, align 4
  %6 = alloca i32, align 4
  %7 = alloca float, align 4
  %8 = alloca float*, align 8
  %9 = alloca float*, align 8
  store i32 0, i32* %1, align 4
  %10 = call i32 (i8*, ...) @__isoc99_scanf(i8* getelementptr inbounds ([3 x i8], [3 x i8]* @.str, i64 0, i64 0), i32* %2)
  store i32 0, i32* %6, align 4
  br label %11

11:                                               ; preds = %111, %0
  %12 = load i32, i32* %6, align 4
  %13 = load i32, i32* %2, align 4
  %14 = icmp slt i32 %12, %13
  br i1 %14, label %15, label %114

15:                                               ; preds = %11
  %16 = call i32 (i8*, ...) @__isoc99_scanf(i8* getelementptr inbounds ([3 x i8], [3 x i8]* @.str, i64 0, i64 0), i32* %3)
  store float 0.000000e+00, float* %7, align 4
  %17 = load i32, i32* %3, align 4
  %18 = mul nsw i32 2, %17
  %19 = add nsw i32 %18, 2
  %20 = sext i32 %19 to i64
  %21 = mul i64 4, %20
  %22 = call noalias i8* @malloc(i64 %21) #3
  %23 = bitcast i8* %22 to float*
  store float* %23, float** %8, align 8
  %24 = load i32, i32* %3, align 4
  %25 = add nsw i32 %24, 1
  %26 = sext i32 %25 to i64
  %27 = mul i64 4, %26
  %28 = call noalias i8* @malloc(i64 %27) #3
  %29 = bitcast i8* %28 to float*
  store float* %29, float** %9, align 8
  %30 = load float*, float** %8, align 8
  %31 = getelementptr inbounds float, float* %30, i64 1
  store float 1.000000e+00, float* %31, align 4
  %32 = load float*, float** %8, align 8
  %33 = getelementptr inbounds float, float* %32, i64 2
  store float 1.000000e+00, float* %33, align 4
  store i32 3, i32* %4, align 4
  br label %34

34:                                               ; preds = %58, %15
  %35 = load i32, i32* %4, align 4
  %36 = load i32, i32* %3, align 4
  %37 = mul nsw i32 2, %36
  %38 = add nsw i32 %37, 1
  %39 = icmp sle i32 %35, %38
  br i1 %39, label %40, label %61

40:                                               ; preds = %34
  %41 = load float*, float** %8, align 8
  %42 = load i32, i32* %4, align 4
  %43 = sub nsw i32 %42, 2
  %44 = sext i32 %43 to i64
  %45 = getelementptr inbounds float, float* %41, i64 %44
  %46 = load float, float* %45, align 4
  %47 = load float*, float** %8, align 8
  %48 = load i32, i32* %4, align 4
  %49 = sub nsw i32 %48, 1
  %50 = sext i32 %49 to i64
  %51 = getelementptr inbounds float, float* %47, i64 %50
  %52 = load float, float* %51, align 4
  %53 = fadd float %46, %52
  %54 = load float*, float** %8, align 8
  %55 = load i32, i32* %4, align 4
  %56 = sext i32 %55 to i64
  %57 = getelementptr inbounds float, float* %54, i64 %56
  store float %53, float* %57, align 4
  br label %58

58:                                               ; preds = %40
  %59 = load i32, i32* %4, align 4
  %60 = add nsw i32 %59, 1
  store i32 %60, i32* %4, align 4
  br label %34

61:                                               ; preds = %34
  store i32 1, i32* %4, align 4
  br label %62

62:                                               ; preds = %84, %61
  %63 = load i32, i32* %4, align 4
  %64 = load i32, i32* %3, align 4
  %65 = icmp sle i32 %63, %64
  br i1 %65, label %66, label %87

66:                                               ; preds = %62
  %67 = load float*, float** %8, align 8
  %68 = load i32, i32* %4, align 4
  %69 = add nsw i32 %68, 2
  %70 = sext i32 %69 to i64
  %71 = getelementptr inbounds float, float* %67, i64 %70
  %72 = load float, float* %71, align 4
  %73 = load float*, float** %8, align 8
  %74 = load i32, i32* %4, align 4
  %75 = add nsw i32 %74, 1
  %76 = sext i32 %75 to i64
  %77 = getelementptr inbounds float, float* %73, i64 %76
  %78 = load float, float* %77, align 4
  %79 = fdiv float %72, %78
  %80 = load float*, float** %9, align 8
  %81 = load i32, i32* %4, align 4
  %82 = sext i32 %81 to i64
  %83 = getelementptr inbounds float, float* %80, i64 %82
  store float %79, float* %83, align 4
  br label %84

84:                                               ; preds = %66
  %85 = load i32, i32* %4, align 4
  %86 = add nsw i32 %85, 1
  store i32 %86, i32* %4, align 4
  br label %62

87:                                               ; preds = %62
  store i32 1, i32* %4, align 4
  br label %88

88:                                               ; preds = %100, %87
  %89 = load i32, i32* %4, align 4
  %90 = load i32, i32* %3, align 4
  %91 = icmp sle i32 %89, %90
  br i1 %91, label %92, label %103

92:                                               ; preds = %88
  %93 = load float*, float** %9, align 8
  %94 = load i32, i32* %4, align 4
  %95 = sext i32 %94 to i64
  %96 = getelementptr inbounds float, float* %93, i64 %95
  %97 = load float, float* %96, align 4
  %98 = load float, float* %7, align 4
  %99 = fadd float %98, %97
  store float %99, float* %7, align 4
  br label %100

100:                                              ; preds = %92
  %101 = load i32, i32* %4, align 4
  %102 = add nsw i32 %101, 1
  store i32 %102, i32* %4, align 4
  br label %88

103:                                              ; preds = %88
  %104 = load float, float* %7, align 4
  %105 = fpext float %104 to double
  %106 = call i32 (i8*, ...) @printf(i8* getelementptr inbounds ([6 x i8], [6 x i8]* @.str.1, i64 0, i64 0), double %105)
  %107 = load float*, float** %8, align 8
  %108 = bitcast float* %107 to i8*
  call void @free(i8* %108) #3
  %109 = load float*, float** %9, align 8
  %110 = bitcast float* %109 to i8*
  call void @free(i8* %110) #3
  br label %111

111:                                              ; preds = %103
  %112 = load i32, i32* %6, align 4
  %113 = add nsw i32 %112, 1
  store i32 %113, i32* %6, align 4
  br label %11

114:                                              ; preds = %11
  ret i32 0
}

declare dso_local i32 @__isoc99_scanf(i8*, ...) #1

; Function Attrs: nounwind
declare dso_local noalias i8* @malloc(i64) #2

declare dso_local i32 @printf(i8*, ...) #1

; Function Attrs: nounwind
declare dso_local void @free(i8*) #2


!llvm.module.flags = !{!0}
!llvm.ident = !{!1}

!0 = !{i32 1, !"wchar_size", i32 4}
!1 = !{!"clang version 10.0.0-4ubuntu1 "}
